target datalayout = "e-m:e-p270:32:32-p271:32:32-p272:64:64-i64:64-i128:128-f80:128-n8:16:32:64-S128"
target triple = "x86_64-pc-linux-gnu"

%"struct.std::__detail::_Hash_node_base" = type { ptr }
%"struct.std::__detail::_Prime_rehash_policy" = type { float, i64 }
%"struct.ade::SubgraphSelfReferenceChecker" = type { %"class.std::unordered_map", %"class.std::unordered_map.26" }
%"class.std::unordered_map" = type { %"class.std::_Hashtable.13" }
%"class.std::_Hashtable.13" = type { [8 x i8], ptr, i64, %"struct.std::__detail::_Hash_node_base", i64, %"struct.std::__detail::_Prime_rehash_policy", ptr }
%"class.std::unordered_map.26" = type { %"class.std::_Hashtable.27" }
%"class.std::_Hashtable.27" = type { [8 x i8], ptr, i64, %"struct.std::__detail::_Hash_node_base", i64, %"struct.std::__detail::_Prime_rehash_policy", ptr }
%"struct.std::__detail::_Hash_node_value_base.77" = type { %"struct.__gnu_cxx::__aligned_buffer.78" }
%"struct.__gnu_cxx::__aligned_buffer.78" = type { %"union.std::aligned_storage<96, 8>::type" }
%"union.std::aligned_storage<96, 8>::type" = type { [96 x i8] }

; Function Attrs: mustprogress nounwind uwtable
define linkonce_odr hidden void @_ZNSt15__new_allocatorINSt8__detail10_Hash_nodeISt4pairIKS2_IN3ade6HandleINS3_4NodeEEES6_ESt13unordered_setIS6_NS3_12HandleHasherIS5_EESt8equal_toIS6_ESaIS6_EEELb1EEEE10deallocateEPSH_m(ptr noundef nonnull align 1 dereferenceable(1) %0, ptr noundef %1, i64 noundef %2) #3 comdat align 2 {
  %4 = alloca ptr, align 8
  %5 = alloca ptr, align 8
  %6 = alloca i64, align 8
  store ptr %0, ptr %4, align 8, !tbaa !337
  store ptr %1, ptr %5, align 8, !tbaa !301
  store i64 %2, ptr %6, align 8, !tbaa !60
  %7 = load ptr, ptr %5, align 8, !tbaa !301
  call void @_ZdlPv(ptr noundef %7) #20
  ret void
}

; Function Attrs: mustprogress nounwind uwtable
define linkonce_odr hidden noundef ptr @_ZN9__gnu_cxx16__aligned_bufferISt4pairIKS1_IN3ade6HandleINS2_4NodeEEES5_ESt13unordered_setIS5_NS2_12HandleHasherIS4_EESt8equal_toIS5_ESaIS5_EEEE7_M_addrEv(ptr noundef nonnull align 8 dereferenceable(96) %0) #3 comdat align 2 {
  %2 = alloca ptr, align 8
  store ptr %0, ptr %2, align 8, !tbaa !325
  %3 = load ptr, ptr %2, align 8
  %4 = getelementptr inbounds nuw %"struct.__gnu_cxx::__aligned_buffer.78", ptr %3, i32 0, i32 0
  ret ptr %4
}

; Function Attrs: mustprogress uwtable
define linkonce_odr hidden void @_ZNSt16allocator_traitsISaINSt8__detail10_Hash_nodeISt4pairIKS2_IN3ade6HandleINS3_4NodeEEES6_ESt13unordered_setIS6_NS3_12HandleHasherIS5_EESt8equal_toIS6_ESaIS6_EEELb1EEEEE10deallocateERSI_PSH_m(ptr noundef nonnull align 1 dereferenceable(1) %0, ptr noundef %1, i64 noundef %2) #0 comdat align 2 {
  %4 = alloca ptr, align 8
  %5 = alloca ptr, align 8
  %6 = alloca i64, align 8
  store ptr %0, ptr %4, align 8, !tbaa !335
  store ptr %1, ptr %5, align 8, !tbaa !301
  store i64 %2, ptr %6, align 8, !tbaa !60
  %7 = load ptr, ptr %4, align 8, !tbaa !335
  %8 = load ptr, ptr %5, align 8, !tbaa !301
  %9 = load i64, ptr %6, align 8, !tbaa !60
  call void @_ZNSt15__new_allocatorINSt8__detail10_Hash_nodeISt4pairIKS2_IN3ade6HandleINS3_4NodeEEES6_ESt13unordered_setIS6_NS3_12HandleHasherIS5_EESt8equal_toIS6_ESaIS6_EEELb1EEEE10deallocateEPSH_m(ptr noundef nonnull align 1 dereferenceable(1) %7, ptr noundef %8, i64 noundef %9)
  ret void
}

; Function Attrs: mustprogress nounwind uwtable
define linkonce_odr hidden noundef ptr @_ZNSt19__ptr_traits_ptr_toIPNSt8__detail10_Hash_nodeISt4pairIKS2_IN3ade6HandleINS3_4NodeEEES6_ESt13unordered_setIS6_NS3_12HandleHasherIS5_EESt8equal_toIS6_ESaIS6_EEELb1EEESH_Lb0EE10pointer_toERSH_(ptr noundef nonnull align 8 dereferenceable(112) %0) #3 comdat align 2 {
  %2 = alloca ptr, align 8
  store ptr %0, ptr %2, align 8, !tbaa !301
  %3 = load ptr, ptr %2, align 8, !tbaa !301
  ret ptr %3
}

; Function Attrs: mustprogress nounwind uwtable
define linkonce_odr hidden void @_ZNSt15__new_allocatorINSt8__detail10_Hash_nodeISt4pairIKS2_IN3ade6HandleINS3_4NodeEEES6_ESt13unordered_setIS6_NS3_12HandleHasherIS5_EESt8equal_toIS6_ESaIS6_EEELb1EEEE7destroyISG_EEvPT_(ptr noundef nonnull align 1 dereferenceable(1) %0, ptr noundef %1) #3 comdat align 2 {
  %3 = alloca ptr, align 8
  %4 = alloca ptr, align 8
  store ptr %0, ptr %3, align 8, !tbaa !337
  store ptr %1, ptr %4, align 8, !tbaa !74
  %5 = load ptr, ptr %4, align 8, !tbaa !74
  call void @_ZNSt4pairIKS_IN3ade6HandleINS0_4NodeEEES3_ESt13unordered_setIS3_NS0_12HandleHasherIS2_EESt8equal_toIS3_ESaIS3_EEED2Ev(ptr noundef nonnull align 8 dereferenceable(96) %5) #16
  ret void
}

; Function Attrs: mustprogress nounwind uwtable
define linkonce_odr hidden noundef ptr @_ZN9__gnu_cxx16__aligned_bufferISt4pairIKS1_IN3ade6HandleINS2_4NodeEEES5_ESt13unordered_setIS5_NS2_12HandleHasherIS4_EESt8equal_toIS5_ESaIS5_EEEE6_M_ptrEv(ptr noundef nonnull align 8 dereferenceable(96) %0) #3 comdat align 2 {
  %2 = alloca ptr, align 8
  store ptr %0, ptr %2, align 8, !tbaa !325
  %3 = load ptr, ptr %2, align 8
  %4 = call noundef ptr @_ZN9__gnu_cxx16__aligned_bufferISt4pairIKS1_IN3ade6HandleINS2_4NodeEEES5_ESt13unordered_setIS5_NS2_12HandleHasherIS4_EESt8equal_toIS5_ESaIS5_EEEE7_M_addrEv(ptr noundef nonnull align 8 dereferenceable(96) %3) #16
  ret ptr %4
}

; Function Attrs: mustprogress nounwind uwtable
define linkonce_odr hidden noundef nonnull align 1 dereferenceable(1) ptr @_ZNSt8__detail21_Hashtable_ebo_helperILi0ESaINS_10_Hash_nodeISt4pairIKS2_IN3ade6HandleINS3_4NodeEEES6_ESt13unordered_setIS6_NS3_12HandleHasherIS5_EESt8equal_toIS6_ESaIS6_EEELb1EEEELb1EE6_M_getEv(ptr noundef nonnull align 1 dereferenceable(1) %0) #3 comdat align 2 {
  %2 = alloca ptr, align 8
  store ptr %0, ptr %2, align 8, !tbaa !339
  %3 = load ptr, ptr %2, align 8
  ret ptr %3
}

; Function Attrs: mustprogress uwtable
define linkonce_odr hidden void @_ZNSt8__detail16_Hashtable_allocISaINS_10_Hash_nodeISt4pairIKS2_IN3ade6HandleINS3_4NodeEEES6_ESt13unordered_setIS6_NS3_12HandleHasherIS5_EESt8equal_toIS6_ESaIS6_EEELb1EEEEE22_M_deallocate_node_ptrEPSH_(ptr noundef nonnull align 1 dereferenceable(1) %0, ptr noundef %1) #0 comdat align 2 {
  %3 = alloca ptr, align 8
  %4 = alloca ptr, align 8
  %5 = alloca ptr, align 8
  store ptr %0, ptr %3, align 8, !tbaa !332
  store ptr %1, ptr %4, align 8, !tbaa !301
  %6 = load ptr, ptr %3, align 8
  call void @llvm.lifetime.start.p0(i64 8, ptr %5) #16
  %7 = load ptr, ptr %4, align 8, !tbaa !301
  %8 = call noundef ptr @_ZNSt19__ptr_traits_ptr_toIPNSt8__detail10_Hash_nodeISt4pairIKS2_IN3ade6HandleINS3_4NodeEEES6_ESt13unordered_setIS6_NS3_12HandleHasherIS5_EESt8equal_toIS6_ESaIS6_EEELb1EEESH_Lb0EE10pointer_toERSH_(ptr noundef nonnull align 8 dereferenceable(112) %7) #16
  store ptr %8, ptr %5, align 8, !tbaa !301
  %9 = call noundef nonnull align 1 dereferenceable(1) ptr @_ZNSt8__detail16_Hashtable_allocISaINS_10_Hash_nodeISt4pairIKS2_IN3ade6HandleINS3_4NodeEEES6_ESt13unordered_setIS6_NS3_12HandleHasherIS5_EESt8equal_toIS6_ESaIS6_EEELb1EEEEE17_M_node_allocatorEv(ptr noundef nonnull align 1 dereferenceable(1) %6)
  %10 = load ptr, ptr %5, align 8, !tbaa !301
  call void @_ZNSt16allocator_traitsISaINSt8__detail10_Hash_nodeISt4pairIKS2_IN3ade6HandleINS3_4NodeEEES6_ESt13unordered_setIS6_NS3_12HandleHasherIS5_EESt8equal_toIS6_ESaIS6_EEELb1EEEEE10deallocateERSI_PSH_m(ptr noundef nonnull align 1 dereferenceable(1) %9, ptr noundef %10, i64 noundef 1)
  call void @llvm.lifetime.end.p0(i64 8, ptr %5) #16
  ret void
}

; Function Attrs: mustprogress nounwind uwtable
define linkonce_odr hidden void @_ZNSt16allocator_traitsISaINSt8__detail10_Hash_nodeISt4pairIKS2_IN3ade6HandleINS3_4NodeEEES6_ESt13unordered_setIS6_NS3_12HandleHasherIS5_EESt8equal_toIS6_ESaIS6_EEELb1EEEEE7destroyISG_EEvRSI_PT_(ptr noundef nonnull align 1 dereferenceable(1) %0, ptr noundef %1) #3 comdat align 2 {
  %3 = alloca ptr, align 8
  %4 = alloca ptr, align 8
  store ptr %0, ptr %3, align 8, !tbaa !335
  store ptr %1, ptr %4, align 8, !tbaa !74
  %5 = load ptr, ptr %3, align 8, !tbaa !335
  %6 = load ptr, ptr %4, align 8, !tbaa !74
  call void @_ZNSt15__new_allocatorINSt8__detail10_Hash_nodeISt4pairIKS2_IN3ade6HandleINS3_4NodeEEES6_ESt13unordered_setIS6_NS3_12HandleHasherIS5_EESt8equal_toIS6_ESaIS6_EEELb1EEEE7destroyISG_EEvPT_(ptr noundef nonnull align 1 dereferenceable(1) %5, ptr noundef %6) #16
  ret void
}

; Function Attrs: mustprogress nounwind uwtable
define linkonce_odr hidden noundef ptr @_ZNSt8__detail21_Hash_node_value_baseISt4pairIKS1_IN3ade6HandleINS2_4NodeEEES5_ESt13unordered_setIS5_NS2_12HandleHasherIS4_EESt8equal_toIS5_ESaIS5_EEEE9_M_valptrEv(ptr noundef nonnull align 8 dereferenceable(96) %0) #3 comdat align 2 {
  %2 = alloca ptr, align 8
  store ptr %0, ptr %2, align 8, !tbaa !321
  %3 = load ptr, ptr %2, align 8
  %4 = getelementptr inbounds nuw %"struct.std::__detail::_Hash_node_value_base.77", ptr %3, i32 0, i32 0
  %5 = call noundef ptr @_ZN9__gnu_cxx16__aligned_bufferISt4pairIKS1_IN3ade6HandleINS2_4NodeEEES5_ESt13unordered_setIS5_NS2_12HandleHasherIS4_EESt8equal_toIS5_ESaIS5_EEEE6_M_ptrEv(ptr noundef nonnull align 8 dereferenceable(96) %4) #16
  ret ptr %5
}

; Function Attrs: mustprogress uwtable
define linkonce_odr hidden noundef nonnull align 1 dereferenceable(1) ptr @_ZNSt8__detail16_Hashtable_allocISaINS_10_Hash_nodeISt4pairIKS2_IN3ade6HandleINS3_4NodeEEES6_ESt13unordered_setIS6_NS3_12HandleHasherIS5_EESt8equal_toIS6_ESaIS6_EEELb1EEEEE17_M_node_allocatorEv(ptr noundef nonnull align 1 dereferenceable(1) %0) #0 comdat align 2 {
  %2 = alloca ptr, align 8
  store ptr %0, ptr %2, align 8, !tbaa !332
  %3 = load ptr, ptr %2, align 8
  %4 = call noundef nonnull align 1 dereferenceable(1) ptr @_ZNSt8__detail21_Hashtable_ebo_helperILi0ESaINS_10_Hash_nodeISt4pairIKS2_IN3ade6HandleINS3_4NodeEEES6_ESt13unordered_setIS6_NS3_12HandleHasherIS5_EESt8equal_toIS6_ESaIS6_EEELb1EEEELb1EE6_M_getEv(ptr noundef nonnull align 1 dereferenceable(1) %3)
  ret ptr %4
}

; Function Attrs: mustprogress uwtable
define linkonce_odr hidden void @_ZNSt8__detail16_Hashtable_allocISaINS_10_Hash_nodeISt4pairIKS2_IN3ade6HandleINS3_4NodeEEES6_ESt13unordered_setIS6_NS3_12HandleHasherIS5_EESt8equal_toIS6_ESaIS6_EEELb1EEEEE18_M_deallocate_nodeEPSH_(ptr noundef nonnull align 1 dereferenceable(1) %0, ptr noundef %1) #0 comdat align 2 {
  %3 = alloca ptr, align 8
  %4 = alloca ptr, align 8
  store ptr %0, ptr %3, align 8, !tbaa !332
  store ptr %1, ptr %4, align 8, !tbaa !301
  %5 = load ptr, ptr %3, align 8
  %6 = call noundef nonnull align 1 dereferenceable(1) ptr @_ZNSt8__detail16_Hashtable_allocISaINS_10_Hash_nodeISt4pairIKS2_IN3ade6HandleINS3_4NodeEEES6_ESt13unordered_setIS6_NS3_12HandleHasherIS5_EESt8equal_toIS6_ESaIS6_EEELb1EEEEE17_M_node_allocatorEv(ptr noundef nonnull align 1 dereferenceable(1) %5)
  %7 = load ptr, ptr %4, align 8, !tbaa !301
  %8 = getelementptr inbounds i8, ptr %7, i64 8
  %9 = call noundef ptr @_ZNSt8__detail21_Hash_node_value_baseISt4pairIKS1_IN3ade6HandleINS2_4NodeEEES5_ESt13unordered_setIS5_NS2_12HandleHasherIS4_EESt8equal_toIS5_ESaIS5_EEEE9_M_valptrEv(ptr noundef nonnull align 8 dereferenceable(96) %8) #16
  call void @_ZNSt16allocator_traitsISaINSt8__detail10_Hash_nodeISt4pairIKS2_IN3ade6HandleINS3_4NodeEEES6_ESt13unordered_setIS6_NS3_12HandleHasherIS5_EESt8equal_toIS6_ESaIS6_EEELb1EEEEE7destroyISG_EEvRSI_PT_(ptr noundef nonnull align 1 dereferenceable(1) %6, ptr noundef %9) #16
  %10 = load ptr, ptr %4, align 8, !tbaa !301
  call void @_ZNSt8__detail16_Hashtable_allocISaINS_10_Hash_nodeISt4pairIKS2_IN3ade6HandleINS3_4NodeEEES6_ESt13unordered_setIS6_NS3_12HandleHasherIS5_EESt8equal_toIS6_ESaIS6_EEELb1EEEEE22_M_deallocate_node_ptrEPSH_(ptr noundef nonnull align 1 dereferenceable(1) %5, ptr noundef %10)
  ret void
}

; Function Attrs: mustprogress nounwind uwtable
define linkonce_odr hidden noundef ptr @_ZNKSt8__detail10_Hash_nodeISt4pairIKS1_IN3ade6HandleINS2_4NodeEEES5_ESt13unordered_setIS5_NS2_12HandleHasherIS4_EESt8equal_toIS5_ESaIS5_EEELb1EE7_M_nextEv(ptr noundef nonnull align 8 dereferenceable(112) %0) #3 comdat align 2 {
  %2 = alloca ptr, align 8
  store ptr %0, ptr %2, align 8, !tbaa !301
  %3 = load ptr, ptr %2, align 8
  %4 = getelementptr inbounds nuw %"struct.std::__detail::_Hash_node_base", ptr %3, i32 0, i32 0
  %5 = load ptr, ptr %4, align 8, !tbaa !139
  ret ptr %5
}

; Function Attrs: noinline noreturn nounwind uwtable
define linkonce_odr hidden void @__clang_call_terminate(ptr noundef %0) #7 comdat {
  %2 = call ptr @__cxa_begin_catch(ptr %0) #16
  call void @_ZSt9terminatev() #17
  unreachable
}

; Function Attrs: mustprogress uwtable
define linkonce_odr hidden void @_ZNSt8__detail16_Hashtable_allocISaINS_10_Hash_nodeISt4pairIKS2_IN3ade6HandleINS3_4NodeEEES6_ESt13unordered_setIS6_NS3_12HandleHasherIS5_EESt8equal_toIS6_ESaIS6_EEELb1EEEEE19_M_deallocate_nodesEPSH_(ptr noundef nonnull align 1 dereferenceable(1) %0, ptr noundef %1) #0 comdat align 2 {
  %3 = alloca ptr, align 8
  %4 = alloca ptr, align 8
  %5 = alloca ptr, align 8
  store ptr %0, ptr %3, align 8, !tbaa !332
  store ptr %1, ptr %4, align 8, !tbaa !301
  %6 = load ptr, ptr %3, align 8
  br label %7

7:                                                ; preds = %10, %2
  %8 = load ptr, ptr %4, align 8, !tbaa !301
  %9 = icmp ne ptr %8, null
  br i1 %9, label %10, label %15

10:                                               ; preds = %7
  call void @llvm.lifetime.start.p0(i64 8, ptr %5) #16
  %11 = load ptr, ptr %4, align 8, !tbaa !301
  store ptr %11, ptr %5, align 8, !tbaa !301
  %12 = load ptr, ptr %4, align 8, !tbaa !301
  %13 = call noundef ptr @_ZNKSt8__detail10_Hash_nodeISt4pairIKS1_IN3ade6HandleINS2_4NodeEEES5_ESt13unordered_setIS5_NS2_12HandleHasherIS4_EESt8equal_toIS5_ESaIS5_EEELb1EE7_M_nextEv(ptr noundef nonnull align 8 dereferenceable(112) %12) #16
  store ptr %13, ptr %4, align 8, !tbaa !301
  %14 = load ptr, ptr %5, align 8, !tbaa !301
  call void @_ZNSt8__detail16_Hashtable_allocISaINS_10_Hash_nodeISt4pairIKS2_IN3ade6HandleINS3_4NodeEEES6_ESt13unordered_setIS6_NS3_12HandleHasherIS5_EESt8equal_toIS6_ESaIS6_EEELb1EEEEE18_M_deallocate_nodeEPSH_(ptr noundef nonnull align 1 dereferenceable(1) %6, ptr noundef %14)
  call void @llvm.lifetime.end.p0(i64 8, ptr %5) #16
  br label %7, !llvm.loop !334

15:                                               ; preds = %7
  ret void
}

; Function Attrs: mustprogress nounwind uwtable
define linkonce_odr hidden noundef ptr @_ZNKSt10_HashtableISt4pairIN3ade6HandleINS1_4NodeEEES4_ES0_IKS5_St13unordered_setIS4_NS1_12HandleHasherIS3_EESt8equal_toIS4_ESaIS4_EEESaISE_ENSt8__detail10_Select1stESA_IS5_ENS1_28SubgraphSelfReferenceChecker6HasherENSG_18_Mod_range_hashingENSG_20_Default_ranged_hashENSG_20_Prime_rehash_policyENSG_17_Hashtable_traitsILb1ELb0ELb1EEEE8_M_beginEv(ptr noundef nonnull align 8 dereferenceable(64) %0) #3 comdat align 2 {
  %2 = alloca ptr, align 8
  store ptr %0, ptr %2, align 8, !tbaa !297
  %3 = load ptr, ptr %2, align 8
  %4 = getelementptr inbounds nuw %"class.std::_Hashtable.27", ptr %3, i32 0, i32 3
  %5 = getelementptr inbounds nuw %"struct.std::__detail::_Hash_node_base", ptr %4, i32 0, i32 0
  %6 = load ptr, ptr %5, align 8, !tbaa !316
  ret ptr %6
}

; Function Attrs: mustprogress nounwind uwtable
define linkonce_odr hidden void @_ZNSt10_HashtableISt4pairIN3ade6HandleINS1_4NodeEEES4_ES0_IKS5_St13unordered_setIS4_NS1_12HandleHasherIS3_EESt8equal_toIS4_ESaIS4_EEESaISE_ENSt8__detail10_Select1stESA_IS5_ENS1_28SubgraphSelfReferenceChecker6HasherENSG_18_Mod_range_hashingENSG_20_Default_ranged_hashENSG_20_Prime_rehash_policyENSG_17_Hashtable_traitsILb1ELb0ELb1EEEE5clearEv(ptr noundef nonnull align 8 dereferenceable(64) %0) #3 comdat align 2 personality ptr @__gxx_personality_v0 {
  %2 = alloca ptr, align 8
  store ptr %0, ptr %2, align 8, !tbaa !297
  %3 = load ptr, ptr %2, align 8
  %4 = call noundef ptr @_ZNKSt10_HashtableISt4pairIN3ade6HandleINS1_4NodeEEES4_ES0_IKS5_St13unordered_setIS4_NS1_12HandleHasherIS3_EESt8equal_toIS4_ESaIS4_EEESaISE_ENSt8__detail10_Select1stESA_IS5_ENS1_28SubgraphSelfReferenceChecker6HasherENSG_18_Mod_range_hashingENSG_20_Default_ranged_hashENSG_20_Prime_rehash_policyENSG_17_Hashtable_traitsILb1ELb0ELb1EEEE8_M_beginEv(ptr noundef nonnull align 8 dereferenceable(64) %3)
  invoke void @_ZNSt8__detail16_Hashtable_allocISaINS_10_Hash_nodeISt4pairIKS2_IN3ade6HandleINS3_4NodeEEES6_ESt13unordered_setIS6_NS3_12HandleHasherIS5_EESt8equal_toIS6_ESaIS6_EEELb1EEEEE19_M_deallocate_nodesEPSH_(ptr noundef nonnull align 1 dereferenceable(1) %3, ptr noundef %4)
          to label %5 unwind label %14

5:                                                ; preds = %1
  %6 = getelementptr inbounds nuw %"class.std::_Hashtable.27", ptr %3, i32 0, i32 1
  %7 = load ptr, ptr %6, align 8, !tbaa !329
  %8 = getelementptr inbounds nuw %"class.std::_Hashtable.27", ptr %3, i32 0, i32 2
  %9 = load i64, ptr %8, align 8, !tbaa !315
  %10 = mul i64 %9, 8
  call void @llvm.memset.p0.i64(ptr align 8 %7, i8 0, i64 %10, i1 false)
  %11 = getelementptr inbounds nuw %"class.std::_Hashtable.27", ptr %3, i32 0, i32 4
  store i64 0, ptr %11, align 8, !tbaa !303
  %12 = getelementptr inbounds nuw %"class.std::_Hashtable.27", ptr %3, i32 0, i32 3
  %13 = getelementptr inbounds nuw %"struct.std::__detail::_Hash_node_base", ptr %12, i32 0, i32 0
  store ptr null, ptr %13, align 8, !tbaa !316
  ret void

14:                                               ; preds = %1
  %15 = landingpad { ptr, i32 }
          catch ptr null
  %16 = extractvalue { ptr, i32 } %15, 0
  call void @__clang_call_terminate(ptr %16) #17
  unreachable
}

; Function Attrs: mustprogress nounwind uwtable
define linkonce_odr hidden void @_ZNSt13unordered_mapISt4pairIN3ade6HandleINS1_4NodeEEES4_ESt13unordered_setIS4_NS1_12HandleHasherIS3_EESt8equal_toIS4_ESaIS4_EENS1_28SubgraphSelfReferenceChecker6HasherES9_IS5_ESaIS0_IKS5_SC_EEE5clearEv(ptr noundef nonnull align 8 dereferenceable(64) %0) #3 comdat align 2 {
  %2 = alloca ptr, align 8
  store ptr %0, ptr %2, align 8, !tbaa !49
  %3 = load ptr, ptr %2, align 8
  %4 = getelementptr inbounds nuw %"class.std::unordered_map.26", ptr %3, i32 0, i32 0
  call void @_ZNSt10_HashtableISt4pairIN3ade6HandleINS1_4NodeEEES4_ES0_IKS5_St13unordered_setIS4_NS1_12HandleHasherIS3_EESt8equal_toIS4_ESaIS4_EEESaISE_ENSt8__detail10_Select1stESA_IS5_ENS1_28SubgraphSelfReferenceChecker6HasherENSG_18_Mod_range_hashingENSG_20_Default_ranged_hashENSG_20_Prime_rehash_policyENSG_17_Hashtable_traitsILb1ELb0ELb1EEEE5clearEv(ptr noundef nonnull align 8 dereferenceable(64) %4) #16
  ret void
}

; Function Attrs: mustprogress nounwind uwtable
define hidden void @_ZN3ade28SubgraphSelfReferenceChecker5resetEv(ptr noundef nonnull align 8 dereferenceable(128) %0) #3 align 2 {
  %2 = alloca ptr, align 8
  store ptr %0, ptr %2, align 8, !tbaa !38
  %3 = load ptr, ptr %2, align 8
  %4 = getelementptr inbounds nuw %"struct.ade::SubgraphSelfReferenceChecker", ptr %3, i32 0, i32 1
  call void @_ZNSt13unordered_mapISt4pairIN3ade6HandleINS1_4NodeEEES4_ESt13unordered_setIS4_NS1_12HandleHasherIS3_EESt8equal_toIS4_ESaIS4_EENS1_28SubgraphSelfReferenceChecker6HasherES9_IS5_ESaIS0_IKS5_SC_EEE5clearEv(ptr noundef nonnull align 8 dereferenceable(64) %4) #16
  ret void
}