; Function Attrs: mustprogress nounwind uwtable
define hidden void @_ZN3ade28SubgraphSelfReferenceChecker5resetEv(ptr noundef nonnull align 8 captures(none) dereferenceable(128) %0) local_unnamed_addr #3 align 2 personality ptr @__gxx_personality_v0 {
  %2 = getelementptr inbounds nuw i8, ptr %0, i64 88
  %3 = load ptr, ptr %2, align 8, !tbaa !190
  %.not5.i.i.i = icmp eq ptr %3, null
  br i1 %.not5.i.i.i, label %_ZNSt13unordered_mapISt4pairIN3ade6HandleINS1_4NodeEEES4_ESt13unordered_setIS4_NS1_12HandleHasherIS3_EESt8equal_toIS4_ESaIS4_EENS1_28SubgraphSelfReferenceChecker6HasherES9_IS5_ESaIS0_IKS5_SC_EEE5clearEv.exit, label %.lr.ph.i.i.i

.lr.ph.i.i.i:                                     ; preds = %1, %.lr.ph.i.i.i
  %.06.i.i.i = phi ptr [ %4, %.lr.ph.i.i.i ], [ %3, %1 ]
  %4 = load ptr, ptr %.06.i.i.i, align 8, !tbaa !91
  %5 = getelementptr inbounds nuw i8, ptr %.06.i.i.i, i64 8
  tail call void @_ZNSt4pairIKS_IN3ade6HandleINS0_4NodeEEES3_ESt13unordered_setIS3_NS0_12HandleHasherIS2_EESt8equal_toIS3_ESaIS3_EEED2Ev(ptr noundef nonnull align 8 dereferenceable(96) %5) #17
  tail call void @_ZdlPv(ptr noundef nonnull %.06.i.i.i) #18
  %.not.i.i.i = icmp eq ptr %4, null
  br i1 %.not.i.i.i, label %_ZNSt13unordered_mapISt4pairIN3ade6HandleINS1_4NodeEEES4_ESt13unordered_setIS4_NS1_12HandleHasherIS3_EESt8equal_toIS4_ESaIS4_EENS1_28SubgraphSelfReferenceChecker6HasherES9_IS5_ESaIS0_IKS5_SC_EEE5clearEv.exit, label %.lr.ph.i.i.i, !llvm.loop !196

_ZNSt13unordered_mapISt4pairIN3ade6HandleINS1_4NodeEEES4_ESt13unordered_setIS4_NS1_12HandleHasherIS3_EESt8equal_toIS4_ESaIS4_EENS1_28SubgraphSelfReferenceChecker6HasherES9_IS5_ESaIS0_IKS5_SC_EEE5clearEv.exit: ; preds = %.lr.ph.i.i.i, %1
  %6 = getelementptr inbounds nuw i8, ptr %0, i64 72
  %7 = load ptr, ptr %6, align 8, !tbaa !197
  %8 = getelementptr inbounds nuw i8, ptr %0, i64 80
  %9 = load i64, ptr %8, align 8, !tbaa !198
  %10 = shl i64 %9, 3
  tail call void @llvm.memset.p0.i64(ptr align 8 %7, i8 0, i64 %10, i1 false)
  tail call void @llvm.memset.p0.i64(ptr noundef nonnull align 8 dereferenceable(16) %2, i8 0, i64 16, i1 false)
  ret void
}